target datalayout = "e-m:e-p270:32:32-p271:32:32-p272:64:64-i64:64-i128:128-f80:128-n8:16:32:64-S128"
target triple = "x86_64-unknown-linux-gnu"

%"class.zmq::dgram_t" = type <{ %"class.zmq::socket_base_t.base", [7 x i8], ptr, i8, [7 x i8] }>
%"class.zmq::socket_base_t.base" = type <{ %"class.zmq::own_t.base", [4 x i8], %"class.zmq::array_item_t.base", [4 x i8], %"struct.zmq::i_poll_events", %"struct.zmq::i_pipe_events", %"class.zmq::mutex_t", %"class.std::multimap", %"class.zmq::socket_base_t::inprocs_t", i32, i8, i8, [2 x i8], ptr, %"class.zmq::array_t", ptr, ptr, i64, i32, i8, [3 x i8], %"class.zmq::clock_t", ptr, i64, %"class.std::__cxx11::basic_string", i8, [7 x i8], ptr, %"class.zmq::mutex_t", i8 }>
%"class.zmq::own_t.base" = type <{ %"class.zmq::object_t.base", [4 x i8], %"struct.zmq::options_t", i8, [7 x i8], %"class.zmq::atomic_counter_t", i64, ptr, %"class.std::set.28", i32 }>
%"class.zmq::object_t.base" = type <{ ptr, ptr, i32 }>
%"struct.zmq::options_t" = type { i32, i32, i64, i8, [256 x i8], i32, i32, i32, i32, i32, i32, i32, i32, i8, %"struct.zmq::atomic_value_t", i32, i32, i32, i32, i32, i32, i64, i32, i32, i8, i32, i8, i8, i8, i8, i8, %"class.std::__cxx11::basic_string", %"class.std::__cxx11::basic_string", %"class.std::__cxx11::basic_string", i32, i32, i32, i32, %"class.std::vector", %"class.std::set", %"class.std::set", %"class.std::set.6", i32, i32, %"class.std::__cxx11::basic_string", %"class.std::__cxx11::basic_string", %"class.std::__cxx11::basic_string", [32 x i8], [32 x i8], [32 x i8], %"class.std::__cxx11::basic_string", %"class.std::__cxx11::basic_string", i32, i32, i8, i32, i8, i32, i8, i16, i32, i32, i32, %"class.std::__cxx11::basic_string", i8, i8, i8, i32, i32, i8, i32, %"class.std::map", i32, %"class.std::__cxx11::basic_string", %"class.std::__cxx11::basic_string", %"class.std::__cxx11::basic_string", %"class.std::__cxx11::basic_string", i8, %"class.std::vector.21", i8, %"class.std::vector.21", i8, %"class.std::vector.21", i8, i32, i8, i32, i32, i32, i32, i32, i8, i32 }
%"struct.zmq::atomic_value_t" = type { %"struct.std::atomic" }
%"struct.std::atomic" = type { %"struct.std::__atomic_base" }
%"struct.std::__atomic_base" = type { i32 }
%"class.std::vector" = type { %"struct.std::_Vector_base" }
%"struct.std::_Vector_base" = type { %"struct.std::_Vector_base<zmq::tcp_address_mask_t, std::allocator<zmq::tcp_address_mask_t>>::_Vector_impl" }
%"struct.std::_Vector_base<zmq::tcp_address_mask_t, std::allocator<zmq::tcp_address_mask_t>>::_Vector_impl" = type { %"struct.std::_Vector_base<zmq::tcp_address_mask_t, std::allocator<zmq::tcp_address_mask_t>>::_Vector_impl_data" }
%"struct.std::_Vector_base<zmq::tcp_address_mask_t, std::allocator<zmq::tcp_address_mask_t>>::_Vector_impl_data" = type { ptr, ptr, ptr }
%"class.std::set" = type { %"class.std::_Rb_tree" }
%"class.std::_Rb_tree" = type { %"struct.std::_Rb_tree<unsigned int, unsigned int, std::_Identity<unsigned int>, std::less<unsigned int>>::_Rb_tree_impl" }
%"struct.std::_Rb_tree<unsigned int, unsigned int, std::_Identity<unsigned int>, std::less<unsigned int>>::_Rb_tree_impl" = type { %"struct.std::_Rb_tree_key_compare", %"struct.std::_Rb_tree_header" }
%"struct.std::_Rb_tree_key_compare" = type { %"struct.std::less" }
%"struct.std::less" = type { i8 }
%"struct.std::_Rb_tree_header" = type { %"struct.std::_Rb_tree_node_base", i64 }
%"struct.std::_Rb_tree_node_base" = type { i32, ptr, ptr, ptr }
%"class.std::set.6" = type { %"class.std::_Rb_tree.7" }
%"class.std::_Rb_tree.7" = type { %"struct.std::_Rb_tree<int, int, std::_Identity<int>, std::less<int>>::_Rb_tree_impl" }
%"struct.std::_Rb_tree<int, int, std::_Identity<int>, std::less<int>>::_Rb_tree_impl" = type { %"struct.std::_Rb_tree_key_compare.11", %"struct.std::_Rb_tree_header" }
%"struct.std::_Rb_tree_key_compare.11" = type { %"struct.std::less.12" }
%"struct.std::less.12" = type { i8 }
%"class.std::map" = type { %"class.std::_Rb_tree.14" }
%"class.std::_Rb_tree.14" = type { %"struct.std::_Rb_tree<std::__cxx11::basic_string<char>, std::pair<const std::__cxx11::basic_string<char>, std::__cxx11::basic_string<char>>, std::_Select1st<std::pair<const std::__cxx11::basic_string<char>, std::__cxx11::basic_string<char>>>, std::less<std::__cxx11::basic_string<char>>>::_Rb_tree_impl" }
%"struct.std::_Rb_tree<std::__cxx11::basic_string<char>, std::pair<const std::__cxx11::basic_string<char>, std::__cxx11::basic_string<char>>, std::_Select1st<std::pair<const std::__cxx11::basic_string<char>, std::__cxx11::basic_string<char>>>, std::less<std::__cxx11::basic_string<char>>>::_Rb_tree_impl" = type { %"struct.std::_Rb_tree_key_compare.18", %"struct.std::_Rb_tree_header" }
%"struct.std::_Rb_tree_key_compare.18" = type { %"struct.std::less.19" }
%"struct.std::less.19" = type { i8 }
%"class.std::vector.21" = type { %"struct.std::_Vector_base.22" }
%"struct.std::_Vector_base.22" = type { %"struct.std::_Vector_base<unsigned char, std::allocator<unsigned char>>::_Vector_impl" }
%"struct.std::_Vector_base<unsigned char, std::allocator<unsigned char>>::_Vector_impl" = type { %"struct.std::_Vector_base<unsigned char, std::allocator<unsigned char>>::_Vector_impl_data" }
%"struct.std::_Vector_base<unsigned char, std::allocator<unsigned char>>::_Vector_impl_data" = type { ptr, ptr, ptr }
%"class.zmq::atomic_counter_t" = type { %"struct.std::atomic.26", [4 x i8] }
%"struct.std::atomic.26" = type { %"struct.std::__atomic_base.27" }
%"struct.std::__atomic_base.27" = type { i32 }
%"class.std::set.28" = type { %"class.std::_Rb_tree.29" }
%"class.std::_Rb_tree.29" = type { %"struct.std::_Rb_tree<zmq::own_t *, zmq::own_t *, std::_Identity<zmq::own_t *>, std::less<zmq::own_t *>>::_Rb_tree_impl" }
%"struct.std::_Rb_tree<zmq::own_t *, zmq::own_t *, std::_Identity<zmq::own_t *>, std::less<zmq::own_t *>>::_Rb_tree_impl" = type { %"struct.std::_Rb_tree_key_compare.33", %"struct.std::_Rb_tree_header" }
%"struct.std::_Rb_tree_key_compare.33" = type { %"struct.std::less.34" }
%"struct.std::less.34" = type { i8 }
%"class.zmq::array_item_t.base" = type <{ ptr, i32 }>
%"struct.zmq::i_poll_events" = type { ptr }
%"struct.zmq::i_pipe_events" = type { ptr }
%"class.std::multimap" = type { %"class.std::_Rb_tree.36" }
%"class.std::_Rb_tree.36" = type { %"struct.std::_Rb_tree<std::__cxx11::basic_string<char>, std::pair<const std::__cxx11::basic_string<char>, std::pair<zmq::own_t *, zmq::pipe_t *>>, std::_Select1st<std::pair<const std::__cxx11::basic_string<char>, std::pair<zmq::own_t *, zmq::pipe_t *>>>, std::less<std::__cxx11::basic_string<char>>>::_Rb_tree_impl" }
%"struct.std::_Rb_tree<std::__cxx11::basic_string<char>, std::pair<const std::__cxx11::basic_string<char>, std::pair<zmq::own_t *, zmq::pipe_t *>>, std::_Select1st<std::pair<const std::__cxx11::basic_string<char>, std::pair<zmq::own_t *, zmq::pipe_t *>>>, std::less<std::__cxx11::basic_string<char>>>::_Rb_tree_impl" = type { %"struct.std::_Rb_tree_key_compare.18", %"struct.std::_Rb_tree_header" }
%"class.zmq::socket_base_t::inprocs_t" = type { %"class.std::multimap.40" }
%"class.std::multimap.40" = type { %"class.std::_Rb_tree.41" }
%"class.std::_Rb_tree.41" = type { %"struct.std::_Rb_tree<std::__cxx11::basic_string<char>, std::pair<const std::__cxx11::basic_string<char>, zmq::pipe_t *>, std::_Select1st<std::pair<const std::__cxx11::basic_string<char>, zmq::pipe_t *>>, std::less<std::__cxx11::basic_string<char>>>::_Rb_tree_impl" }
%"struct.std::_Rb_tree<std::__cxx11::basic_string<char>, std::pair<const std::__cxx11::basic_string<char>, zmq::pipe_t *>, std::_Select1st<std::pair<const std::__cxx11::basic_string<char>, zmq::pipe_t *>>, std::less<std::__cxx11::basic_string<char>>>::_Rb_tree_impl" = type { %"struct.std::_Rb_tree_key_compare.18", %"struct.std::_Rb_tree_header" }
%"class.zmq::array_t" = type { %"class.std::vector.45" }
%"class.std::vector.45" = type { %"struct.std::_Vector_base.46" }
%"struct.std::_Vector_base.46" = type { %"struct.std::_Vector_base<zmq::pipe_t *, std::allocator<zmq::pipe_t *>>::_Vector_impl" }
%"struct.std::_Vector_base<zmq::pipe_t *, std::allocator<zmq::pipe_t *>>::_Vector_impl" = type { %"struct.std::_Vector_base<zmq::pipe_t *, std::allocator<zmq::pipe_t *>>::_Vector_impl_data" }
%"struct.std::_Vector_base<zmq::pipe_t *, std::allocator<zmq::pipe_t *>>::_Vector_impl_data" = type { ptr, ptr, ptr }
%"class.zmq::clock_t" = type { i64, i64 }
%"class.std::__cxx11::basic_string" = type { %"struct.std::__cxx11::basic_string<char>::_Alloc_hider", i64, %union.anon }
%"struct.std::__cxx11::basic_string<char>::_Alloc_hider" = type { ptr }
%union.anon = type { i64, [8 x i8] }
%"class.zmq::mutex_t" = type <{ %union.pthread_mutex_t, %union.pthread_mutexattr_t, [4 x i8] }>
%union.pthread_mutex_t = type { %struct.__pthread_mutex_s }
%struct.__pthread_mutex_s = type { i32, i32, i32, i32, i32, i16, i16, %struct.__pthread_internal_list }
%struct.__pthread_internal_list = type { ptr, ptr }
%union.pthread_mutexattr_t = type { i32 }

@stderr = external global ptr, align 8
@.str.2 = private unnamed_addr constant [105 x i8] c"generated/home/dtcxzyw/WorkSpace/Projects/compilers/llvm-opt-benchmark/bench/libzmq/libzmq/src/dgram.cpp\00", align 1
@.str.4 = private unnamed_addr constant [12 x i8] c"%s (%s:%d)\0A\00", align 1

; Function Attrs: mustprogress uwtable
define noundef i32 @_ZN3zmq7dgram_t5xsendEPNS_5msg_tE(ptr noundef nonnull align 8 dereferenceable(1848) %this, ptr noundef %msg_) unnamed_addr #0 align 2 {
entry:
  %retval = alloca i32, align 4
  %this.addr = alloca ptr, align 8
  %msg_.addr = alloca ptr, align 8
  %rc = alloca i32, align 4
  %errstr = alloca ptr, align 8
  %rc39 = alloca i32, align 4
  %errstr46 = alloca ptr, align 8
  store ptr %this, ptr %this.addr, align 8
  store ptr %msg_, ptr %msg_.addr, align 8
  %this1 = load ptr, ptr %this.addr, align 8
  %_pipe = getelementptr inbounds %"class.zmq::dgram_t", ptr %this1, i32 0, i32 2
  %0 = load ptr, ptr %_pipe, align 8
  %tobool = icmp ne ptr %0, null
  br i1 %tobool, label %if.end7, label %if.then

if.then:                                          ; preds = %entry
  %1 = load ptr, ptr %msg_.addr, align 8
  %call = call noundef i32 @_ZN3zmq5msg_t5closeEv(ptr noundef nonnull align 8 dereferenceable(64) %1)
  store i32 %call, ptr %rc, align 4
  br label %do.body

do.body:                                          ; preds = %if.then
  %2 = load i32, ptr %rc, align 4
  %cmp = icmp eq i32 %2, 0
  %lnot = xor i1 %cmp, true
  br i1 %lnot, label %if.then2, label %if.end

if.then2:                                         ; preds = %do.body
  %call3 = call ptr @__errno_location() #11
  %3 = load i32, ptr %call3, align 4
  %call4 = call ptr @strerror(i32 noundef %3) #8
  store ptr %call4, ptr %errstr, align 8
  %4 = load ptr, ptr @stderr, align 8
  %5 = load ptr, ptr %errstr, align 8
  %call5 = call i32 (ptr, ptr, ...) @fprintf(ptr noundef %4, ptr noundef @.str.4, ptr noundef %5, ptr noundef @.str.2, i32 noundef 65)
  %6 = load ptr, ptr @stderr, align 8
  %call6 = call i32 @fflush(ptr noundef %6)
  %7 = load ptr, ptr %errstr, align 8
  call void @_ZN3zmq9zmq_abortEPKc(ptr noundef %7)
  br label %if.end

if.end:                                           ; preds = %if.then2, %do.body
  br label %do.end

do.end:                                           ; preds = %if.end
  store i32 -1, ptr %retval, align 4
  br label %return

if.end7:                                          ; preds = %entry
  %_more_out = getelementptr inbounds %"class.zmq::dgram_t", ptr %this1, i32 0, i32 3
  %8 = load i8, ptr %_more_out, align 8
  %tobool8 = trunc i8 %8 to i1
  br i1 %tobool8, label %if.else, label %if.then9

if.then9:                                         ; preds = %if.end7
  %9 = load ptr, ptr %msg_.addr, align 8
  %call10 = call noundef zeroext i8 @_ZNK3zmq5msg_t5flagsEv(ptr noundef nonnull align 8 dereferenceable(64) %9)
  %conv = zext i8 %call10 to i32
  %and = and i32 %conv, 1
  %tobool11 = icmp ne i32 %and, 0
  br i1 %tobool11, label %if.end14, label %if.then12

if.then12:                                        ; preds = %if.then9
  %call13 = call ptr @__errno_location() #11
  store i32 22, ptr %call13, align 4
  store i32 -1, ptr %retval, align 4
  br label %return

if.end14:                                         ; preds = %if.then9
  br label %if.end22

if.else:                                          ; preds = %if.end7
  %10 = load ptr, ptr %msg_.addr, align 8
  %call15 = call noundef zeroext i8 @_ZNK3zmq5msg_t5flagsEv(ptr noundef nonnull align 8 dereferenceable(64) %10)
  %conv16 = zext i8 %call15 to i32
  %and17 = and i32 %conv16, 1
  %tobool18 = icmp ne i32 %and17, 0
  br i1 %tobool18, label %if.then19, label %if.end21

if.then19:                                        ; preds = %if.else
  %call20 = call ptr @__errno_location() #11
  store i32 22, ptr %call20, align 4
  store i32 -1, ptr %retval, align 4
  br label %return

if.end21:                                         ; preds = %if.else
  br label %if.end22

if.end22:                                         ; preds = %if.end21, %if.end14
  %_pipe23 = getelementptr inbounds %"class.zmq::dgram_t", ptr %this1, i32 0, i32 2
  %11 = load ptr, ptr %_pipe23, align 8
  %12 = load ptr, ptr %msg_.addr, align 8
  %call24 = call noundef zeroext i1 @_ZN3zmq6pipe_t5writeEPKNS_5msg_tE(ptr noundef nonnull align 8 dereferenceable(328) %11, ptr noundef %12)
  br i1 %call24, label %if.end27, label %if.then25

if.then25:                                        ; preds = %if.end22
  %call26 = call ptr @__errno_location() #11
  store i32 11, ptr %call26, align 4
  store i32 -1, ptr %retval, align 4
  br label %return

if.end27:                                         ; preds = %if.end22
  %13 = load ptr, ptr %msg_.addr, align 8
  %call28 = call noundef zeroext i8 @_ZNK3zmq5msg_t5flagsEv(ptr noundef nonnull align 8 dereferenceable(64) %13)
  %conv29 = zext i8 %call28 to i32
  %and30 = and i32 %conv29, 1
  %tobool31 = icmp ne i32 %and30, 0
  br i1 %tobool31, label %if.end34, label %if.then32

if.then32:                                        ; preds = %if.end27
  %_pipe33 = getelementptr inbounds %"class.zmq::dgram_t", ptr %this1, i32 0, i32 2
  %14 = load ptr, ptr %_pipe33, align 8
  call void @_ZN3zmq6pipe_t5flushEv(ptr noundef nonnull align 8 dereferenceable(328) %14)
  br label %if.end34

if.end34:                                         ; preds = %if.then32, %if.end27
  %_more_out35 = getelementptr inbounds %"class.zmq::dgram_t", ptr %this1, i32 0, i32 3
  %15 = load i8, ptr %_more_out35, align 8
  %tobool36 = trunc i8 %15 to i1
  %lnot37 = xor i1 %tobool36, true
  %_more_out38 = getelementptr inbounds %"class.zmq::dgram_t", ptr %this1, i32 0, i32 3
  %frombool = zext i1 %lnot37 to i8
  store i8 %frombool, ptr %_more_out38, align 8
  %16 = load ptr, ptr %msg_.addr, align 8
  %call40 = call noundef i32 @_ZN3zmq5msg_t4initEv(ptr noundef nonnull align 8 dereferenceable(64) %16)
  store i32 %call40, ptr %rc39, align 4
  br label %do.body41

do.body41:                                        ; preds = %if.end34
  %17 = load i32, ptr %rc39, align 4
  %cmp42 = icmp eq i32 %17, 0
  %lnot43 = xor i1 %cmp42, true
  br i1 %lnot43, label %if.then45, label %if.end51

if.then45:                                        ; preds = %do.body41
  %call47 = call ptr @__errno_location() #11
  %18 = load i32, ptr %call47, align 4
  %call48 = call ptr @strerror(i32 noundef %18) #8
  store ptr %call48, ptr %errstr46, align 8
  %19 = load ptr, ptr @stderr, align 8
  %20 = load ptr, ptr %errstr46, align 8
  %call49 = call i32 (ptr, ptr, ...) @fprintf(ptr noundef %19, ptr noundef @.str.4, ptr noundef %20, ptr noundef @.str.2, i32 noundef 98)
  %21 = load ptr, ptr @stderr, align 8
  %call50 = call i32 @fflush(ptr noundef %21)
  %22 = load ptr, ptr %errstr46, align 8
  call void @_ZN3zmq9zmq_abortEPKc(ptr noundef %22)
  br label %if.end51

if.end51:                                         ; preds = %if.then45, %do.body41
  br label %do.end52

do.end52:                                         ; preds = %if.end51
  store i32 0, ptr %retval, align 4
  br label %return

return:                                           ; preds = %do.end52, %if.then25, %if.then19, %if.then12, %do.end
  %23 = load i32, ptr %retval, align 4
  ret i32 %23
}