; Function Attrs: mustprogress uwtable
define noundef i32 @_ZN3zmq7dgram_t5xsendEPNS_5msg_tE(ptr nocapture noundef nonnull align 8 dereferenceable(1848) %this, ptr noundef %msg_) unnamed_addr #0 align 2 {
entry:
  %_pipe = getelementptr inbounds i8, ptr %this, i64 1832
  %0 = load ptr, ptr %_pipe, align 8
  %tobool.not = icmp eq ptr %0, null
  br i1 %tobool.not, label %if.then, label %if.end7

if.then:                                          ; preds = %entry
  %call = tail call noundef i32 @_ZN3zmq5msg_t5closeEv(ptr noundef nonnull align 8 dereferenceable(64) %msg_)
  %cmp.not = icmp eq i32 %call, 0
  br i1 %cmp.not, label %return, label %if.then2

if.then2:                                         ; preds = %if.then
  %call3 = tail call ptr @__errno_location() #15
  %1 = load i32, ptr %call3, align 4
  %call4 = tail call ptr @strerror(i32 noundef %1) #12
  %2 = load ptr, ptr @stderr, align 8
  %call5 = tail call i32 (ptr, ptr, ...) @fprintf(ptr noundef %2, ptr noundef nonnull @.str.4, ptr noundef %call4, ptr noundef nonnull @.str.2, i32 noundef 65) #11
  %3 = load ptr, ptr @stderr, align 8
  %call6 = tail call i32 @fflush(ptr noundef %3)
  tail call void @_ZN3zmq9zmq_abortEPKc(ptr noundef %call4)
  br label %return

if.end7:                                          ; preds = %entry
  %_more_out = getelementptr inbounds i8, ptr %this, i64 1840
  %4 = load i8, ptr %_more_out, align 8
  %5 = and i8 %4, 1
  %tobool8.not = icmp eq i8 %5, 0
  %call10 = tail call noundef zeroext i8 @_ZNK3zmq5msg_t5flagsEv(ptr noundef nonnull align 8 dereferenceable(64) %msg_)
  %6 = and i8 %call10, 1
  %tobool11.not = icmp eq i8 %6, 0
  br i1 %tobool8.not, label %if.then9, label %if.else

if.then9:                                         ; preds = %if.end7
  br i1 %tobool11.not, label %if.then12, label %if.end22

if.then12:                                        ; preds = %if.then9
  %call13 = tail call ptr @__errno_location() #15
  store i32 22, ptr %call13, align 4
  br label %return

if.else:                                          ; preds = %if.end7
  br i1 %tobool11.not, label %if.end22, label %if.then19

if.then19:                                        ; preds = %if.else
  %call20 = tail call ptr @__errno_location() #15
  store i32 22, ptr %call20, align 4
  br label %return

if.end22:                                         ; preds = %if.else, %if.then9
  %7 = load ptr, ptr %_pipe, align 8
  %call24 = tail call noundef zeroext i1 @_ZN3zmq6pipe_t5writeEPKNS_5msg_tE(ptr noundef nonnull align 8 dereferenceable(328) %7, ptr noundef nonnull %msg_)
  br i1 %call24, label %if.end27, label %if.then25

if.then25:                                        ; preds = %if.end22
  %call26 = tail call ptr @__errno_location() #15
  store i32 11, ptr %call26, align 4
  br label %return

if.end27:                                         ; preds = %if.end22
  %call28 = tail call noundef zeroext i8 @_ZNK3zmq5msg_t5flagsEv(ptr noundef nonnull align 8 dereferenceable(64) %msg_)
  %8 = and i8 %call28, 1
  %tobool31.not = icmp eq i8 %8, 0
  br i1 %tobool31.not, label %if.then32, label %if.end34

if.then32:                                        ; preds = %if.end27
  %9 = load ptr, ptr %_pipe, align 8
  tail call void @_ZN3zmq6pipe_t5flushEv(ptr noundef nonnull align 8 dereferenceable(328) %9)
  br label %if.end34

if.end34:                                         ; preds = %if.then32, %if.end27
  %10 = load i8, ptr %_more_out, align 8
  %11 = and i8 %10, 1
  %frombool = xor i8 %11, 1
  store i8 %frombool, ptr %_more_out, align 8
  %call40 = tail call noundef i32 @_ZN3zmq5msg_t4initEv(ptr noundef nonnull align 8 dereferenceable(64) %msg_)
  %cmp42.not = icmp eq i32 %call40, 0
  br i1 %cmp42.not, label %return, label %if.then45

if.then45:                                        ; preds = %if.end34
  %call47 = tail call ptr @__errno_location() #15
  %12 = load i32, ptr %call47, align 4
  %call48 = tail call ptr @strerror(i32 noundef %12) #12
  %13 = load ptr, ptr @stderr, align 8
  %call49 = tail call i32 (ptr, ptr, ...) @fprintf(ptr noundef %13, ptr noundef nonnull @.str.4, ptr noundef %call48, ptr noundef nonnull @.str.2, i32 noundef 98) #11
  %14 = load ptr, ptr @stderr, align 8
  %call50 = tail call i32 @fflush(ptr noundef %14)
  tail call void @_ZN3zmq9zmq_abortEPKc(ptr noundef %call48)
  br label %return

return:                                           ; preds = %if.then45, %if.end34, %if.then2, %if.then, %if.then25, %if.then19, %if.then12
  %retval.0 = phi i32 [ -1, %if.then19 ], [ -1, %if.then25 ], [ -1, %if.then12 ], [ -1, %if.then ], [ -1, %if.then2 ], [ 0, %if.end34 ], [ 0, %if.then45 ]
  ret i32 %retval.0
}